target datalayout = "e-m:e-p270:32:32-p271:32:32-p272:64:64-i64:64-i128:128-f80:128-n8:16:32:64-S128"
target triple = "x86_64-pc-linux-gnu"

%struct.AVRational = type { i32, i32 }
%struct.AVPacket = type { ptr, i64, i64, ptr, i32, i32, i32, ptr, i32, i64, i64, ptr, ptr, %struct.AVRational }

; Function Attrs: nounwind uwtable
define void @av_packet_rescale_ts(ptr noundef %0, i64 %1, i64 %2) #0 {
  %4 = alloca %struct.AVRational, align 4
  %5 = alloca %struct.AVRational, align 4
  %6 = alloca ptr, align 8
  store i64 %1, ptr %4, align 4
  store i64 %2, ptr %5, align 4
  store ptr %0, ptr %6, align 8, !tbaa !4
  %7 = load ptr, ptr %6, align 8, !tbaa !4
  %8 = getelementptr inbounds nuw %struct.AVPacket, ptr %7, i32 0, i32 1
  %9 = load i64, ptr %8, align 8, !tbaa !9
  %10 = icmp ne i64 %9, -9223372036854775808
  br i1 %10, label %11, label %20

11:                                               ; preds = %3
  %12 = load ptr, ptr %6, align 8, !tbaa !4
  %13 = getelementptr inbounds nuw %struct.AVPacket, ptr %12, i32 0, i32 1
  %14 = load i64, ptr %13, align 8, !tbaa !9
  %15 = load i64, ptr %4, align 4
  %16 = load i64, ptr %5, align 4
  %17 = call i64 @av_rescale_q(i64 noundef %14, i64 %15, i64 %16) #12
  %18 = load ptr, ptr %6, align 8, !tbaa !4
  %19 = getelementptr inbounds nuw %struct.AVPacket, ptr %18, i32 0, i32 1
  store i64 %17, ptr %19, align 8, !tbaa !9
  br label %20

20:                                               ; preds = %11, %3
  %21 = load ptr, ptr %6, align 8, !tbaa !4
  %22 = getelementptr inbounds nuw %struct.AVPacket, ptr %21, i32 0, i32 2
  %23 = load i64, ptr %22, align 8, !tbaa !17
  %24 = icmp ne i64 %23, -9223372036854775808
  br i1 %24, label %25, label %34

25:                                               ; preds = %20
  %26 = load ptr, ptr %6, align 8, !tbaa !4
  %27 = getelementptr inbounds nuw %struct.AVPacket, ptr %26, i32 0, i32 2
  %28 = load i64, ptr %27, align 8, !tbaa !17
  %29 = load i64, ptr %4, align 4
  %30 = load i64, ptr %5, align 4
  %31 = call i64 @av_rescale_q(i64 noundef %28, i64 %29, i64 %30) #12
  %32 = load ptr, ptr %6, align 8, !tbaa !4
  %33 = getelementptr inbounds nuw %struct.AVPacket, ptr %32, i32 0, i32 2
  store i64 %31, ptr %33, align 8, !tbaa !17
  br label %34

34:                                               ; preds = %25, %20
  %35 = load ptr, ptr %6, align 8, !tbaa !4
  %36 = getelementptr inbounds nuw %struct.AVPacket, ptr %35, i32 0, i32 9
  %37 = load i64, ptr %36, align 8, !tbaa !19
  %38 = icmp sgt i64 %37, 0
  br i1 %38, label %39, label %48

39:                                               ; preds = %34
  %40 = load ptr, ptr %6, align 8, !tbaa !4
  %41 = getelementptr inbounds nuw %struct.AVPacket, ptr %40, i32 0, i32 9
  %42 = load i64, ptr %41, align 8, !tbaa !19
  %43 = load i64, ptr %4, align 4
  %44 = load i64, ptr %5, align 4
  %45 = call i64 @av_rescale_q(i64 noundef %42, i64 %43, i64 %44) #12
  %46 = load ptr, ptr %6, align 8, !tbaa !4
  %47 = getelementptr inbounds nuw %struct.AVPacket, ptr %46, i32 0, i32 9
  store i64 %45, ptr %47, align 8, !tbaa !19
  br label %48

48:                                               ; preds = %39, %34
  ret void
}