; Function Attrs: mustprogress nofree nosync nounwind willreturn memory(argmem: readwrite) uwtable
define void @av_packet_rescale_ts(ptr noundef captures(none) %0, i64 %1, i64 %2) local_unnamed_addr #13 {
  %4 = getelementptr inbounds nuw i8, ptr %0, i64 8
  %5 = load i64, ptr %4, align 8, !tbaa !4
  %.not = icmp eq i64 %5, -9223372036854775808
  br i1 %.not, label %8, label %6

6:                                                ; preds = %3
  %7 = tail call i64 @av_rescale_q(i64 noundef %5, i64 %1, i64 %2) #19
  store i64 %7, ptr %4, align 8, !tbaa !4
  br label %8

8:                                                ; preds = %6, %3
  %9 = getelementptr inbounds nuw i8, ptr %0, i64 16
  %10 = load i64, ptr %9, align 8, !tbaa !15
  %.not16 = icmp eq i64 %10, -9223372036854775808
  br i1 %.not16, label %13, label %11

11:                                               ; preds = %8
  %12 = tail call i64 @av_rescale_q(i64 noundef %10, i64 %1, i64 %2) #19
  store i64 %12, ptr %9, align 8, !tbaa !15
  br label %13

13:                                               ; preds = %11, %8
  %14 = getelementptr inbounds nuw i8, ptr %0, i64 64
  %15 = load i64, ptr %14, align 8, !tbaa !17
  %16 = icmp sgt i64 %15, 0
  br i1 %16, label %17, label %19

17:                                               ; preds = %13
  %18 = tail call i64 @av_rescale_q(i64 noundef %15, i64 %1, i64 %2) #19
  store i64 %18, ptr %14, align 8, !tbaa !17
  br label %19

19:                                               ; preds = %17, %13
  ret void
}